target datalayout = "e-m:e-p270:32:32-p271:32:32-p272:64:64-i64:64-i128:128-f80:128-n8:16:32:64-S128"
target triple = "x86_64-pc-linux-gnu"

%struct._zval_struct = type { %union._zend_value, %union.anon, %union.anon.2 }
%union._zend_value = type { i64 }
%union.anon = type { i32 }
%union.anon.2 = type { i32 }
%struct._zend_execute_data = type { ptr, ptr, ptr, ptr, %struct._zval_struct, ptr, ptr, ptr, ptr }

@.str.14 = private unnamed_addr constant [70 x i8] c"Argument #1 ($file_descriptor) must be of type int|resource, %s given\00", align 1

; Function Attrs: nounwind uwtable
define hidden void @zif_posix_isatty(ptr noundef %0, ptr noundef %1) #0 {
  %3 = alloca ptr, align 8
  %4 = alloca ptr, align 8
  %5 = alloca i1, align 1
  %6 = alloca ptr, align 8
  %7 = alloca ptr, align 8
  %8 = alloca ptr, align 8
  %9 = alloca i8, align 1
  %10 = alloca i32, align 4
  %11 = alloca i8, align 1
  %12 = alloca ptr, align 8
  %13 = alloca ptr, align 8
  %14 = alloca ptr, align 8
  %15 = alloca ptr, align 8
  %16 = alloca i8, align 1
  %17 = alloca ptr, align 8
  %18 = alloca ptr, align 8
  %19 = alloca ptr, align 8
  %20 = alloca i8, align 1
  %21 = alloca i32, align 4
  %22 = alloca ptr, align 8
  %23 = alloca ptr, align 8
  %24 = alloca ptr, align 8
  %25 = alloca i64, align 8
  %26 = alloca i32, align 4
  %27 = alloca i32, align 4
  %28 = alloca i32, align 4
  %29 = alloca i32, align 4
  %30 = alloca i32, align 4
  %31 = alloca ptr, align 8
  %32 = alloca ptr, align 8
  %33 = alloca i32, align 4
  %34 = alloca ptr, align 8
  %35 = alloca i8, align 1
  %36 = alloca i8, align 1
  %37 = alloca i32, align 4
  store ptr %0, ptr %22, align 8
  store ptr %1, ptr %23, align 8
  store i64 0, ptr %25, align 8
  br label %38

38:                                               ; preds = %2
  store i32 0, ptr %26, align 4
  store i32 1, ptr %27, align 4
  store i32 1, ptr %28, align 4
  %39 = load ptr, ptr %22, align 8
  %40 = getelementptr inbounds %struct._zend_execute_data, ptr %39, i32 0, i32 4
  %41 = getelementptr inbounds %struct._zval_struct, ptr %40, i32 0, i32 2
  %42 = load i32, ptr %41, align 4
  store i32 %42, ptr %29, align 4
  store i32 0, ptr %30, align 4
  store ptr null, ptr %32, align 8
  store i32 0, ptr %33, align 4
  store ptr null, ptr %34, align 8
  store i8 0, ptr %35, align 1
  store i8 0, ptr %36, align 1
  store i32 0, ptr %37, align 4
  br label %43

43:                                               ; preds = %38
  %44 = load i32, ptr %29, align 4
  %45 = load i32, ptr %27, align 4
  %46 = icmp ult i32 %44, %45
  %47 = xor i1 %46, true
  %48 = xor i1 %47, true
  %49 = zext i1 %48 to i32
  %50 = sext i32 %49 to i64
  %51 = icmp ne i64 %50, 0
  br i1 %51, label %61, label %52

52:                                               ; preds = %43
  %53 = load i32, ptr %29, align 4
  %54 = load i32, ptr %28, align 4
  %55 = icmp ugt i32 %53, %54
  %56 = xor i1 %55, true
  %57 = xor i1 %56, true
  %58 = zext i1 %57 to i32
  %59 = sext i32 %58 to i64
  %60 = icmp ne i64 %59, 0
  br i1 %60, label %61, label %64

61:                                               ; preds = %52, %43
  %62 = load i32, ptr %27, align 4
  %63 = load i32, ptr %28, align 4
  call void @zend_wrong_parameters_count_error(i32 noundef %62, i32 noundef %63)
  store i32 1, ptr %37, align 4
  br label %130

64:                                               ; preds = %52
  %65 = load ptr, ptr %22, align 8
  %66 = getelementptr inbounds %struct._zval_struct, ptr %65, i64 4
  store ptr %66, ptr %31, align 8
  %67 = load i32, ptr %30, align 4
  %68 = add i32 %67, 1
  store i32 %68, ptr %30, align 4
  %69 = load i32, ptr %30, align 4
  %70 = load i32, ptr %27, align 4
  %71 = icmp ule i32 %69, %70
  br i1 %71, label %77, label %72

72:                                               ; preds = %64
  %73 = load i8, ptr %36, align 1
  %74 = trunc i8 %73 to i1
  %75 = zext i1 %74 to i32
  %76 = icmp eq i32 %75, 1
  br label %77

77:                                               ; preds = %72, %64
  %78 = phi i1 [ true, %64 ], [ %76, %72 ]
  call void @llvm.assume(i1 %78)
  %79 = load i32, ptr %30, align 4
  %80 = load i32, ptr %27, align 4
  %81 = icmp ugt i32 %79, %80
  br i1 %81, label %87, label %82

82:                                               ; preds = %77
  %83 = load i8, ptr %36, align 1
  %84 = trunc i8 %83 to i1
  %85 = zext i1 %84 to i32
  %86 = icmp eq i32 %85, 0
  br label %87

87:                                               ; preds = %82, %77
  %88 = phi i1 [ true, %77 ], [ %86, %82 ]
  call void @llvm.assume(i1 %88)
  %89 = load i8, ptr %36, align 1
  %90 = trunc i8 %89 to i1
  br i1 %90, label %91, label %102

91:                                               ; preds = %87
  %92 = load i32, ptr %30, align 4
  %93 = load i32, ptr %29, align 4
  %94 = icmp ugt i32 %92, %93
  %95 = xor i1 %94, true
  %96 = xor i1 %95, true
  %97 = zext i1 %96 to i32
  %98 = sext i32 %97 to i64
  %99 = icmp ne i64 %98, 0
  br i1 %99, label %100, label %101

100:                                              ; preds = %91
  br label %130

101:                                              ; preds = %91
  br label %102

102:                                              ; preds = %101, %87
  %103 = load ptr, ptr %31, align 8
  %104 = getelementptr inbounds %struct._zval_struct, ptr %103, i32 1
  store ptr %104, ptr %31, align 8
  %105 = load ptr, ptr %31, align 8
  store ptr %105, ptr %32, align 8
  %106 = load ptr, ptr %32, align 8
  store ptr %106, ptr %14, align 8
  store ptr %24, ptr %15, align 8
  store i8 0, ptr %16, align 1
  %107 = load i8, ptr %16, align 1
  %108 = trunc i8 %107 to i1
  br i1 %108, label %109, label %117

109:                                              ; preds = %102
  %110 = load ptr, ptr %14, align 8
  store ptr %110, ptr %13, align 8
  %111 = load ptr, ptr %13, align 8
  %112 = getelementptr inbounds %struct._zval_struct, ptr %111, i32 0, i32 1
  %113 = load i8, ptr %112, align 8
  %114 = zext i8 %113 to i32
  %115 = icmp eq i32 %114, 1
  br i1 %115, label %116, label %117

116:                                              ; preds = %109
  br label %119

117:                                              ; preds = %109, %102
  %118 = load ptr, ptr %14, align 8
  br label %119

119:                                              ; preds = %117, %116
  %120 = phi ptr [ null, %116 ], [ %118, %117 ]
  %121 = load ptr, ptr %15, align 8
  store ptr %120, ptr %121, align 8
  %122 = load i32, ptr %30, align 4
  %123 = load i32, ptr %28, align 4
  %124 = icmp eq i32 %122, %123
  br i1 %124, label %128, label %125

125:                                              ; preds = %119
  %126 = load i32, ptr %28, align 4
  %127 = icmp eq i32 %126, -1
  br label %128

128:                                              ; preds = %125, %119
  %129 = phi i1 [ true, %119 ], [ %127, %125 ]
  call void @llvm.assume(i1 %129)
  br label %130

130:                                              ; preds = %128, %100, %61
  %131 = load i32, ptr %37, align 4
  %132 = icmp ne i32 %131, 0
  %133 = xor i1 %132, true
  %134 = xor i1 %133, true
  %135 = zext i1 %134 to i32
  %136 = sext i32 %135 to i64
  %137 = icmp ne i64 %136, 0
  br i1 %137, label %138, label %144

138:                                              ; preds = %130
  %139 = load i32, ptr %37, align 4
  %140 = load i32, ptr %30, align 4
  %141 = load ptr, ptr %34, align 8
  %142 = load i32, ptr %33, align 4
  %143 = load ptr, ptr %32, align 8
  call void @zend_wrong_parameter_error(i32 noundef %139, i32 noundef %140, ptr noundef %141, i32 noundef %142, ptr noundef %143)
  br label %259

144:                                              ; preds = %130
  br label %145

145:                                              ; preds = %144
  %146 = load ptr, ptr %24, align 8
  store ptr %146, ptr %12, align 8
  %147 = load ptr, ptr %12, align 8
  %148 = getelementptr inbounds %struct._zval_struct, ptr %147, i32 0, i32 1
  %149 = load i8, ptr %148, align 8
  %150 = zext i8 %149 to i32
  %151 = icmp eq i32 %150, 9
  br i1 %151, label %152, label %164

152:                                              ; preds = %145
  %153 = load ptr, ptr %24, align 8
  %154 = call i32 @php_posix_stream_get_fd(ptr noundef %153, ptr noundef %25)
  %155 = icmp ne i32 %154, 0
  br i1 %155, label %163, label %156

156:                                              ; preds = %152
  br label %157

157:                                              ; preds = %156
  br label %158

158:                                              ; preds = %157
  %159 = load ptr, ptr %23, align 8
  %160 = getelementptr inbounds %struct._zval_struct, ptr %159, i32 0, i32 1
  store i32 2, ptr %160, align 8
  br label %161

161:                                              ; preds = %158
  br label %259

162:                                              ; No predecessors!
  br label %163

163:                                              ; preds = %162, %152
  br label %227

164:                                              ; preds = %145
  %165 = load ptr, ptr %24, align 8
  store ptr %165, ptr %17, align 8
  store ptr %25, ptr %18, align 8
  store ptr null, ptr %19, align 8
  store i8 0, ptr %20, align 1
  store i32 1, ptr %21, align 4
  %166 = load ptr, ptr %17, align 8
  %167 = load ptr, ptr %18, align 8
  %168 = load ptr, ptr %19, align 8
  %169 = load i8, ptr %20, align 1
  %170 = trunc i8 %169 to i1
  %171 = load i32, ptr %21, align 4
  store ptr %166, ptr %6, align 8
  store ptr %167, ptr %7, align 8
  store ptr %168, ptr %8, align 8
  %172 = zext i1 %170 to i8
  store i8 %172, ptr %9, align 1
  store i32 %171, ptr %10, align 4
  store i8 0, ptr %11, align 1
  %173 = load i8, ptr %9, align 1
  %174 = trunc i8 %173 to i1
  br i1 %174, label %175, label %177

175:                                              ; preds = %164
  %176 = load ptr, ptr %8, align 8
  store i8 0, ptr %176, align 1
  br label %177

177:                                              ; preds = %175, %164
  %178 = load ptr, ptr %6, align 8
  store ptr %178, ptr %3, align 8
  %179 = load ptr, ptr %3, align 8
  %180 = getelementptr inbounds %struct._zval_struct, ptr %179, i32 0, i32 1
  %181 = load i8, ptr %180, align 8
  %182 = zext i8 %181 to i32
  %183 = icmp eq i32 %182, 4
  br i1 %183, label %184, label %188

184:                                              ; preds = %177
  %185 = load ptr, ptr %6, align 8
  %186 = load i64, ptr %185, align 8
  %187 = load ptr, ptr %7, align 8
  store i64 %186, ptr %187, align 8
  br label %214

188:                                              ; preds = %177
  %189 = load i8, ptr %9, align 1
  %190 = trunc i8 %189 to i1
  br i1 %190, label %191, label %201

191:                                              ; preds = %188
  %192 = load ptr, ptr %6, align 8
  store ptr %192, ptr %4, align 8
  %193 = load ptr, ptr %4, align 8
  %194 = getelementptr inbounds %struct._zval_struct, ptr %193, i32 0, i32 1
  %195 = load i8, ptr %194, align 8
  %196 = zext i8 %195 to i32
  %197 = icmp eq i32 %196, 1
  br i1 %197, label %198, label %201

198:                                              ; preds = %191
  %199 = load ptr, ptr %8, align 8
  store i8 1, ptr %199, align 1
  %200 = load ptr, ptr %7, align 8
  store i64 0, ptr %200, align 8
  br label %214

201:                                              ; preds = %191, %188
  %202 = load i8, ptr %11, align 1
  %203 = trunc i8 %202 to i1
  br i1 %203, label %204, label %209

204:                                              ; preds = %201
  %205 = load ptr, ptr %6, align 8
  %206 = load ptr, ptr %7, align 8
  %207 = load i32, ptr %10, align 4
  %208 = call zeroext i1 @zend_flf_parse_arg_long_slow(ptr noundef %205, ptr noundef %206, i32 noundef %207) #9
  store i1 %208, ptr %5, align 1
  br label %215

209:                                              ; preds = %201
  %210 = load ptr, ptr %6, align 8
  %211 = load ptr, ptr %7, align 8
  %212 = load i32, ptr %10, align 4
  %213 = call zeroext i1 @zend_parse_arg_long_slow(ptr noundef %210, ptr noundef %211, i32 noundef %212) #9
  store i1 %213, ptr %5, align 1
  br label %215

214:                                              ; preds = %198, %184
  store i1 true, ptr %5, align 1
  br label %215

215:                                              ; preds = %214, %209, %204
  %216 = load i1, ptr %5, align 1
  br i1 %216, label %226, label %217

217:                                              ; preds = %215
  %218 = load ptr, ptr %24, align 8
  %219 = call ptr @zend_zval_value_name(ptr noundef %218)
  call void (ptr, i32, ptr, ...) @php_error_docref(ptr noundef null, i32 noundef 2, ptr noundef @.str.14, ptr noundef %219)
  br label %220

220:                                              ; preds = %217
  br label %221

221:                                              ; preds = %220
  %222 = load ptr, ptr %23, align 8
  %223 = getelementptr inbounds %struct._zval_struct, ptr %222, i32 0, i32 1
  store i32 2, ptr %223, align 8
  br label %224

224:                                              ; preds = %221
  br label %259

225:                                              ; No predecessors!
  br label %226

226:                                              ; preds = %225, %215
  br label %227

227:                                              ; preds = %226, %163
  %228 = load i64, ptr %25, align 8
  %229 = icmp slt i64 %228, 0
  br i1 %229, label %233, label %230

230:                                              ; preds = %227
  %231 = load i64, ptr %25, align 8
  %232 = icmp sgt i64 %231, 2147483647
  br i1 %232, label %233, label %240

233:                                              ; preds = %230, %227
  br label %234

234:                                              ; preds = %233
  br label %235

235:                                              ; preds = %234
  %236 = load ptr, ptr %23, align 8
  %237 = getelementptr inbounds %struct._zval_struct, ptr %236, i32 0, i32 1
  store i32 2, ptr %237, align 8
  br label %238

238:                                              ; preds = %235
  br label %259

239:                                              ; No predecessors!
  br label %240

240:                                              ; preds = %239, %230
  %241 = load i64, ptr %25, align 8
  %242 = trunc i64 %241 to i32
  %243 = call i32 @isatty(i32 noundef %242) #9
  %244 = icmp ne i32 %243, 0
  br i1 %244, label %245, label %252

245:                                              ; preds = %240
  br label %246

246:                                              ; preds = %245
  br label %247

247:                                              ; preds = %246
  %248 = load ptr, ptr %23, align 8
  %249 = getelementptr inbounds %struct._zval_struct, ptr %248, i32 0, i32 1
  store i32 3, ptr %249, align 8
  br label %250

250:                                              ; preds = %247
  br label %259

251:                                              ; No predecessors!
  br label %259

252:                                              ; preds = %240
  br label %253

253:                                              ; preds = %252
  br label %254

254:                                              ; preds = %253
  %255 = load ptr, ptr %23, align 8
  %256 = getelementptr inbounds %struct._zval_struct, ptr %255, i32 0, i32 1
  store i32 2, ptr %256, align 8
  br label %257

257:                                              ; preds = %254
  br label %259

258:                                              ; No predecessors!
  br label %259

259:                                              ; preds = %258, %257, %251, %250, %238, %224, %161, %138
  ret void
}