; Function Attrs: nounwind uwtable
define hidden void @zif_posix_isatty(ptr noundef %0, ptr nocapture noundef writeonly %1) #0 {
  %3 = alloca i64, align 8
  store i64 0, ptr %3, align 8
  %4 = getelementptr inbounds i8, ptr %0, i64 44
  %5 = load i32, ptr %4, align 4
  %cond = icmp eq i32 %5, 1
  br i1 %cond, label %7, label %6

6:                                                ; preds = %2
  tail call void @zend_wrong_parameters_count_error(i32 noundef 1, i32 noundef 1) #11
  tail call void @zend_wrong_parameter_error(i32 noundef 1, i32 noundef 0, ptr noundef null, i32 noundef 0, ptr noundef null) #11
  br label %31

7:                                                ; preds = %2
  %8 = getelementptr inbounds i8, ptr %0, i64 80
  %9 = getelementptr inbounds i8, ptr %0, i64 88
  %10 = load i8, ptr %9, align 8
  switch i8 %10, label %16 [
    i8 9, label %11
    i8 4, label %.critedge
  ]

11:                                               ; preds = %7
  %12 = call fastcc i32 @php_posix_stream_get_fd(ptr noundef nonnull %8, ptr noundef nonnull %3), !range !4
  %.not76 = icmp eq i32 %12, 0
  br i1 %.not76, label %13, label %thread-pre-split

13:                                               ; preds = %11
  %14 = getelementptr inbounds i8, ptr %1, i64 8
  store i32 2, ptr %14, align 8
  br label %31

.critedge:                                        ; preds = %7
  %15 = load i64, ptr %8, align 8
  store i64 %15, ptr %3, align 8
  br label %21

16:                                               ; preds = %7
  %17 = call zeroext i1 @zend_parse_arg_long_slow(ptr noundef nonnull %8, ptr noundef nonnull %3, i32 noundef 1) #11
  br i1 %17, label %thread-pre-split, label %18

18:                                               ; preds = %16
  %19 = call ptr @zend_zval_value_name(ptr noundef nonnull %8) #11
  call void (ptr, i32, ptr, ...) @php_error_docref(ptr noundef null, i32 noundef 2, ptr noundef nonnull @.str.14, ptr noundef %19) #11
  %20 = getelementptr inbounds i8, ptr %1, i64 8
  store i32 2, ptr %20, align 8
  br label %31

thread-pre-split:                                 ; preds = %11, %16
  %.pr = load i64, ptr %3, align 8
  br label %21

21:                                               ; preds = %thread-pre-split, %.critedge
  %22 = phi i64 [ %.pr, %thread-pre-split ], [ %15, %.critedge ]
  %or.cond = icmp ugt i64 %22, 2147483647
  br i1 %or.cond, label %23, label %25

23:                                               ; preds = %21
  %24 = getelementptr inbounds i8, ptr %1, i64 8
  store i32 2, ptr %24, align 8
  br label %31

25:                                               ; preds = %21
  %26 = trunc i64 %22 to i32
  %27 = call i32 @isatty(i32 noundef %26) #11
  %.not77 = icmp eq i32 %27, 0
  %28 = getelementptr inbounds i8, ptr %1, i64 8
  br i1 %.not77, label %30, label %29

29:                                               ; preds = %25
  store i32 3, ptr %28, align 8
  br label %31

30:                                               ; preds = %25
  store i32 2, ptr %28, align 8
  br label %31

31:                                               ; preds = %30, %29, %23, %18, %13, %6
  ret void
}